# SymbolsHelper-Confirmed: 5.94.0 amd64
libKF5KCMUtilsCore.so.5 libkf5kcmutilscore5 #MINVER#
* Build-Depends-Package: libkf5kcmutils-dev
 _ZN12KPluginModel10addPluginsERK7QVectorI15KPluginMetaDataERK7QString@Base 5.94.0
 _ZN12KPluginModel11qt_metacallEN11QMetaObject4CallEiPPv@Base 5.94.0
 _ZN12KPluginModel11qt_metacastEPKc@Base 5.94.0
 _ZN12KPluginModel12isSaveNeededEv@Base 5.94.0
 _ZN12KPluginModel16staticMetaObjectE@Base 5.94.0
 _ZN12KPluginModel19isSaveNeededChangedEv@Base 5.94.0
 _ZN12KPluginModel4loadEv@Base 5.94.0
 _ZN12KPluginModel4saveEv@Base 5.94.0
 _ZN12KPluginModel5clearEv@Base 5.94.0
 _ZN12KPluginModel7setDataERK11QModelIndexRK8QVarianti@Base 5.94.0
 _ZN12KPluginModel8defaultsEv@Base 5.94.0
 _ZN12KPluginModel9defaultedEb@Base 5.94.0
 _ZN12KPluginModel9setConfigERK12KConfigGroup@Base 5.94.0
 _ZN12KPluginModelC1EP7QObject@Base 5.94.0
 _ZN12KPluginModelC2EP7QObject@Base 5.94.0
 _ZN12KPluginModelD0Ev@Base 5.94.0
 _ZN12KPluginModelD1Ev@Base 5.94.0
 _ZN12KPluginModelD2Ev@Base 5.94.0
 _ZNK12KPluginModel10metaObjectEv@Base 5.94.0
 _ZNK12KPluginModel21findConfigForPluginIdERK7QString@Base 5.94.0
 _ZNK12KPluginModel4dataERK11QModelIndexi@Base 5.94.0
 _ZNK12KPluginModel8rowCountERK11QModelIndex@Base 5.94.0
 _ZNK12KPluginModel9roleNamesEv@Base 5.94.0
 _ZTI12KPluginModel@Base 5.94.0
 _ZTS12KPluginModel@Base 5.94.0
 _ZTV12KPluginModel@Base 5.94.0
